target datalayout = "e-m:e-p270:32:32-p271:32:32-p272:64:64-i64:64-i128:128-f80:128-n8:16:32:64-S128"
target triple = "x86_64-unknown-linux-gnu"

%class.symbol = type { ptr }
%class.smt_strategic_solver_factory = type { %class.solver_factory, %class.symbol }
%class.solver_factory = type { ptr }

@_ZTV14solver_factory = linkonce_odr hidden unnamed_addr constant { [5 x ptr] } { [5 x ptr] [ptr null, ptr @_ZTI14solver_factory, ptr @_ZN14solver_factoryD2Ev, ptr @_ZN14solver_factoryD0Ev, ptr @__cxa_pure_virtual] }, comdat, align 8

; Function Attrs: mustprogress nounwind uwtable
define linkonce_odr hidden void @_ZN14solver_factoryC2Ev(ptr noundef nonnull align 8 dereferenceable(8) %this) unnamed_addr #5 comdat align 2 {
entry:
  %this.addr = alloca ptr, align 8
  store ptr %this, ptr %this.addr, align 8
  %this1 = load ptr, ptr %this.addr, align 8
  store ptr getelementptr inbounds ({ [5 x ptr] }, ptr @_ZTV14solver_factory, i32 0, i32 0, i32 2), ptr %this1, align 8
  ret void
}

; Function Attrs: mustprogress nounwind uwtable
define linkonce_odr hidden void @_ZN28smt_strategic_solver_factoryC2ERK6symbol(ptr noundef nonnull align 8 dereferenceable(16) %this, ptr noundef nonnull align 8 dereferenceable(8) %logic) unnamed_addr #5 comdat align 2 {
entry:
  %this.addr = alloca ptr, align 8
  %logic.addr = alloca ptr, align 8
  store ptr %this, ptr %this.addr, align 8
  store ptr %logic, ptr %logic.addr, align 8
  %this1 = load ptr, ptr %this.addr, align 8
  call void @_ZN14solver_factoryC2Ev(ptr noundef nonnull align 8 dereferenceable(8) %this1) #3
  store ptr getelementptr inbounds ({ [5 x ptr] }, ptr @_ZTV28smt_strategic_solver_factory, i32 0, i32 0, i32 2), ptr %this1, align 8
  %m_logic = getelementptr inbounds %class.smt_strategic_solver_factory, ptr %this1, i32 0, i32 1
  %0 = load ptr, ptr %logic.addr, align 8
  call void @llvm.memcpy.p0.p0.i64(ptr align 8 %m_logic, ptr align 8 %0, i64 8, i1 false)
  ret void
}

; Function Attrs: mustprogress uwtable
define hidden noundef ptr @_Z31mk_smt_strategic_solver_factoryRK6symbol(ptr noundef nonnull align 8 dereferenceable(8) %logic) #4 {
entry:
  %logic.addr = alloca ptr, align 8
  store ptr %logic, ptr %logic.addr, align 8
  %call = call noalias noundef ptr @_ZN6memory8allocateEm(i64 noundef 16)
  %0 = load ptr, ptr %logic.addr, align 8
  call void @_ZN28smt_strategic_solver_factoryC2ERK6symbol(ptr noundef nonnull align 8 dereferenceable(16) %call, ptr noundef nonnull align 8 dereferenceable(8) %0)
  ret ptr %call
}