; Function Attrs: mustprogress uwtable
define hidden noalias noundef ptr @_Z31mk_smt_strategic_solver_factoryRK6symbol(ptr nocapture noundef nonnull readonly align 8 dereferenceable(8) %logic) local_unnamed_addr #3 {
entry:
  %call = tail call noalias noundef ptr @_ZN6memory8allocateEm(i64 noundef 16)
  store ptr getelementptr inbounds ({ [5 x ptr] }, ptr @_ZTV28smt_strategic_solver_factory, i64 0, i32 0, i64 2), ptr %call, align 8
  %m_logic.i = getelementptr inbounds i8, ptr %call, i64 8
  %0 = load i64, ptr %logic, align 8
  store i64 %0, ptr %m_logic.i, align 8
  ret ptr %call
}